target datalayout = "e-m:e-p270:32:32-p271:32:32-p272:64:64-i64:64-i128:128-f80:128-n8:16:32:64-S128"
target triple = "x86_64-unknown-linux-gnu"

%"class.std::basic_ostream" = type { ptr, %"class.std::basic_ios" }
%"class.std::basic_ios" = type { %"class.std::ios_base", ptr, i8, i8, ptr, ptr, ptr, ptr }
%"class.std::ios_base" = type { ptr, i64, i64, i32, i32, i32, ptr, %"struct.std::ios_base::_Words", [8 x %"struct.std::ios_base::_Words"], i32, ptr, %"class.std::locale" }
%"struct.std::ios_base::_Words" = type { ptr, i64 }
%"class.std::locale" = type { ptr }

@_ZSt4cerr = external global %"class.std::basic_ostream", align 8
@.str.11 = private unnamed_addr constant [42 x i8] c"usage: ./reduce [reduce|transform_reduce]\00", align 1
@.str.12 = private unnamed_addr constant [7 x i8] c"reduce\00", align 1
@.str.13 = private unnamed_addr constant [17 x i8] c"transform_reduce\00", align 1
@.str.14 = private unnamed_addr constant [16 x i8] c"invalid method \00", align 1

; Function Attrs: mustprogress norecurse uwtable
define dso_local noundef i32 @main(i32 noundef %argc, ptr noundef %argv) #6 {
entry:
  %retval = alloca i32, align 4
  %argc.addr = alloca i32, align 4
  %argv.addr = alloca ptr, align 8
  store i32 0, ptr %retval, align 4
  store i32 %argc, ptr %argc.addr, align 4
  store ptr %argv, ptr %argv.addr, align 8
  %0 = load i32, ptr %argc.addr, align 4
  %cmp = icmp ne i32 %0, 2
  br i1 %cmp, label %if.then, label %if.end

if.then:                                          ; preds = %entry
  %call = call noundef nonnull align 8 dereferenceable(8) ptr @_ZStlsISt11char_traitsIcEERSt13basic_ostreamIcT_ES5_PKc(ptr noundef nonnull align 8 dereferenceable(8) @_ZSt4cerr, ptr noundef @.str.11)
  %call1 = call noundef nonnull align 8 dereferenceable(8) ptr @_ZNSolsEPFRSoS_E(ptr noundef nonnull align 8 dereferenceable(8) %call, ptr noundef @_ZSt4endlIcSt11char_traitsIcEERSt13basic_ostreamIT_T0_ES6_)
  call void @exit(i32 noundef 1) #25
  unreachable

if.end:                                           ; preds = %entry
  %1 = load ptr, ptr %argv.addr, align 8
  %arrayidx = getelementptr inbounds ptr, ptr %1, i64 1
  %2 = load ptr, ptr %arrayidx, align 8
  %call2 = call i32 @strcmp(ptr noundef %2, ptr noundef @.str.12) #27
  %cmp3 = icmp eq i32 %call2, 0
  br i1 %cmp3, label %if.then4, label %if.else

if.then4:                                         ; preds = %if.end
  call void @_Z6reducev()
  br label %if.end15

if.else:                                          ; preds = %if.end
  %3 = load ptr, ptr %argv.addr, align 8
  %arrayidx5 = getelementptr inbounds ptr, ptr %3, i64 1
  %4 = load ptr, ptr %arrayidx5, align 8
  %call6 = call i32 @strcmp(ptr noundef %4, ptr noundef @.str.13) #27
  %cmp7 = icmp eq i32 %call6, 0
  br i1 %cmp7, label %if.then8, label %if.else9

if.then8:                                         ; preds = %if.else
  call void @_Z16transform_reducev()
  br label %if.end14

if.else9:                                         ; preds = %if.else
  %call10 = call noundef nonnull align 8 dereferenceable(8) ptr @_ZStlsISt11char_traitsIcEERSt13basic_ostreamIcT_ES5_PKc(ptr noundef nonnull align 8 dereferenceable(8) @_ZSt4cerr, ptr noundef @.str.14)
  %5 = load ptr, ptr %argv.addr, align 8
  %arrayidx11 = getelementptr inbounds ptr, ptr %5, i64 1
  %6 = load ptr, ptr %arrayidx11, align 8
  %call12 = call noundef nonnull align 8 dereferenceable(8) ptr @_ZStlsISt11char_traitsIcEERSt13basic_ostreamIcT_ES5_PKc(ptr noundef nonnull align 8 dereferenceable(8) %call10, ptr noundef %6)
  %call13 = call noundef nonnull align 8 dereferenceable(8) ptr @_ZNSolsEPFRSoS_E(ptr noundef nonnull align 8 dereferenceable(8) %call12, ptr noundef @_ZSt4endlIcSt11char_traitsIcEERSt13basic_ostreamIT_T0_ES6_)
  call void @exit(i32 noundef 1) #25
  unreachable

if.end14:                                         ; preds = %if.then8
  br label %if.end15

if.end15:                                         ; preds = %if.end14, %if.then4
  ret i32 0
}