; Function Attrs: mustprogress norecurse uwtable
define dso_local noundef i32 @main(i32 noundef %argc, ptr nocapture noundef readonly %argv) local_unnamed_addr #6 {
entry:
  %cmp.not = icmp eq i32 %argc, 2
  br i1 %cmp.not, label %if.end, label %if.then

if.then:                                          ; preds = %entry
  %call = tail call noundef nonnull align 8 dereferenceable(8) ptr @_ZStlsISt11char_traitsIcEERSt13basic_ostreamIcT_ES5_PKc(ptr noundef nonnull align 8 dereferenceable(8) @_ZSt4cerr, ptr noundef nonnull @.str.11)
  %call1 = tail call noundef nonnull align 8 dereferenceable(8) ptr @_ZNSolsEPFRSoS_E(ptr noundef nonnull align 8 dereferenceable(8) %call, ptr noundef nonnull @_ZSt4endlIcSt11char_traitsIcEERSt13basic_ostreamIT_T0_ES6_)
  tail call void @exit(i32 noundef 1) #32
  unreachable

if.end:                                           ; preds = %entry
  %arrayidx = getelementptr inbounds i8, ptr %argv, i64 8
  %0 = load ptr, ptr %arrayidx, align 8
  %call2 = tail call i32 @strcmp(ptr noundef nonnull dereferenceable(1) %0, ptr noundef nonnull dereferenceable(7) @.str.12) #33
  %cmp3 = icmp eq i32 %call2, 0
  br i1 %cmp3, label %if.then4, label %if.else

if.then4:                                         ; preds = %if.end
  tail call void @_Z6reducev()
  br label %if.end15

if.else:                                          ; preds = %if.end
  %call6 = tail call i32 @strcmp(ptr noundef nonnull dereferenceable(1) %0, ptr noundef nonnull dereferenceable(17) @.str.13) #33
  %cmp7 = icmp eq i32 %call6, 0
  br i1 %cmp7, label %if.then8, label %if.else9

if.then8:                                         ; preds = %if.else
  tail call void @_Z16transform_reducev()
  br label %if.end15

if.else9:                                         ; preds = %if.else
  %call10 = tail call noundef nonnull align 8 dereferenceable(8) ptr @_ZStlsISt11char_traitsIcEERSt13basic_ostreamIcT_ES5_PKc(ptr noundef nonnull align 8 dereferenceable(8) @_ZSt4cerr, ptr noundef nonnull @.str.14)
  %1 = load ptr, ptr %arrayidx, align 8
  %call12 = tail call noundef nonnull align 8 dereferenceable(8) ptr @_ZStlsISt11char_traitsIcEERSt13basic_ostreamIcT_ES5_PKc(ptr noundef nonnull align 8 dereferenceable(8) %call10, ptr noundef %1)
  %call13 = tail call noundef nonnull align 8 dereferenceable(8) ptr @_ZNSolsEPFRSoS_E(ptr noundef nonnull align 8 dereferenceable(8) %call12, ptr noundef nonnull @_ZSt4endlIcSt11char_traitsIcEERSt13basic_ostreamIT_T0_ES6_)
  tail call void @exit(i32 noundef 1) #32
  unreachable

if.end15:                                         ; preds = %if.then8, %if.then4
  ret i32 0
}